target datalayout = "e-m:e-p270:32:32-p271:32:32-p272:64:64-i64:64-i128:128-f80:128-n8:16:32:64-S128"
target triple = "x86_64-unknown-linux-gnu"

%struct.BlockLimits = type { i32, i64, i32, i64, i32, i32, i32, i64, i32, i64, i64, i32, i8, i32, i32, i32, i32, i32, i32, i32 }
%struct.BlockDriverState = type { i32, i8, i8, i8, i8, i8, ptr, ptr, ptr, %struct.anon.1, i8, [4096 x i8], [4096 x i8], [4096 x i8], [16 x i8], ptr, [4096 x i8], %struct.BlockLimits, i32, i32, i32, i32, [32 x i8], %union.anon, %union.anon.2, %union.anon.3, i32, [16 x %struct.anon.4], ptr, %struct.anon.5, ptr, ptr, %struct.anon.6, ptr, ptr, i32, ptr, i64, i64, %struct.QemuMutex, %struct.anon.7, %struct.Stat64, i32, i32, i32, i32, i32, i32, %struct.QemuMutex, %struct.anon.8, %struct.CoQueue, i8, i32, i8, %struct.CoMutex, ptr, ptr }
%struct.anon.1 = type { ptr }
%union.anon = type { %struct.QTailQLink }
%struct.QTailQLink = type { ptr, ptr }
%union.anon.2 = type { %struct.QTailQLink }
%union.anon.3 = type { %struct.QTailQLink }
%struct.anon.4 = type { ptr }
%struct.anon.5 = type { ptr }
%struct.anon.6 = type { ptr }
%struct.anon.7 = type { ptr }
%struct.Stat64 = type { i64 }
%struct.QemuMutex = type { %union.pthread_mutex_t, i8 }
%union.pthread_mutex_t = type { %struct.__pthread_mutex_s }
%struct.__pthread_mutex_s = type { i32, i32, i32, i32, i32, i16, i16, %struct.__pthread_internal_list }
%struct.__pthread_internal_list = type { ptr, ptr }
%struct.anon.8 = type { ptr }
%struct.CoQueue = type { %struct.anon.9 }
%struct.anon.9 = type { ptr, ptr }
%struct.CoMutex = type { i32, ptr, %struct.anon.10, %struct.anon.10, i32, i32, ptr }
%struct.anon.10 = type { ptr }
%struct.BdrvTrackedRequest = type { ptr, i64, i64, i32, i8, i64, i64, %struct.anon.12, ptr, %struct.CoQueue, ptr }
%struct.anon.12 = type { ptr, ptr }

@.str.1 = private unnamed_addr constant [19 x i8] c"../qemu/block/io.c\00", align 1
@qemu_mutex_lock_func = external global ptr, align 8
@__func__.bdrv_wait_serialising_requests = private unnamed_addr constant [31 x i8] c"bdrv_wait_serialising_requests\00", align 1

; Function Attrs: nounwind sspstrong uwtable
define internal void @bdrv_wait_serialising_requests(ptr noundef %self) #0 {
entry:
  %self.addr = alloca ptr, align 8
  %bs = alloca ptr, align 8
  %tmp = alloca i32, align 4
  %atomic-temp = alloca i32, align 4
  %_f = alloca ptr, align 8
  %tmp7 = alloca ptr, align 8
  %atomic-temp8 = alloca ptr, align 8
  store ptr %self, ptr %self.addr, align 8
  %0 = load ptr, ptr %self.addr, align 8
  %bs1 = getelementptr inbounds %struct.BdrvTrackedRequest, ptr %0, i32 0, i32 0
  %1 = load ptr, ptr %bs1, align 8
  store ptr %1, ptr %bs, align 8
  br label %while.cond

while.cond:                                       ; preds = %do.end, %entry
  br i1 false, label %while.body, label %while.end

while.body:                                       ; preds = %while.cond
  br label %do.body

do.body:                                          ; preds = %while.body
  call void @g_assertion_message_expr(ptr noundef null, ptr noundef @.str.1, i32 noundef 819, ptr noundef @__func__.bdrv_wait_serialising_requests, ptr noundef null) #13
  unreachable

do.end:                                           ; No predecessors!
  br label %while.cond

while.end:                                        ; preds = %while.cond
  %2 = load ptr, ptr %bs, align 8
  %serialising_in_flight = getelementptr inbounds %struct.BlockDriverState, ptr %2, i32 0, i32 44
  %3 = load atomic i32, ptr %serialising_in_flight monotonic, align 8
  store i32 %3, ptr %atomic-temp, align 4
  %4 = load i32, ptr %atomic-temp, align 4
  store i32 %4, ptr %tmp, align 4
  %5 = load i32, ptr %tmp, align 4
  %tobool = icmp ne i32 %5, 0
  br i1 %tobool, label %if.end, label %if.then

if.then:                                          ; preds = %while.end
  br label %return

if.end:                                           ; preds = %while.end
  br label %while.cond2

while.cond2:                                      ; preds = %do.end5, %if.end
  br i1 false, label %while.body3, label %while.end6

while.body3:                                      ; preds = %while.cond2
  br label %do.body4

do.body4:                                         ; preds = %while.body3
  call void @g_assertion_message_expr(ptr noundef null, ptr noundef @.str.1, i32 noundef 823, ptr noundef @__func__.bdrv_wait_serialising_requests, ptr noundef null) #13
  unreachable

do.end5:                                          ; No predecessors!
  br label %while.cond2

while.end6:                                       ; preds = %while.cond2
  %6 = load atomic i64, ptr @qemu_mutex_lock_func monotonic, align 8
  store i64 %6, ptr %atomic-temp8, align 8
  %7 = load ptr, ptr %atomic-temp8, align 8
  store ptr %7, ptr %tmp7, align 8
  %8 = load ptr, ptr %tmp7, align 8
  store ptr %8, ptr %_f, align 8
  %9 = load ptr, ptr %_f, align 8
  %10 = load ptr, ptr %bs, align 8
  %reqs_lock = getelementptr inbounds %struct.BlockDriverState, ptr %10, i32 0, i32 48
  call void %9(ptr noundef %reqs_lock, ptr noundef @.str.1, i32 noundef 823)
  %11 = load ptr, ptr %self.addr, align 8
  call void @bdrv_wait_serialising_requests_locked(ptr noundef %11)
  %12 = load ptr, ptr %bs, align 8
  %reqs_lock9 = getelementptr inbounds %struct.BlockDriverState, ptr %12, i32 0, i32 48
  call void @qemu_mutex_unlock_impl(ptr noundef %reqs_lock9, ptr noundef @.str.1, i32 noundef 825)
  br label %return

return:                                           ; preds = %while.end6, %if.then
  ret void
}