; Function Attrs: nounwind sspstrong uwtable
define internal void @bdrv_wait_serialising_requests(ptr noundef %self) #0 {
entry:
  %0 = load ptr, ptr %self, align 8
  %serialising_in_flight = getelementptr inbounds nuw i8, ptr %0, i64 16976
  %1 = load atomic i32, ptr %serialising_in_flight monotonic, align 8
  %tobool.not = icmp eq i32 %1, 0
  br i1 %tobool.not, label %return, label %while.end6

while.end6:                                       ; preds = %entry
  %2 = load atomic i64, ptr @qemu_mutex_lock_func monotonic, align 8
  %3 = inttoptr i64 %2 to ptr
  %reqs_lock = getelementptr inbounds nuw i8, ptr %0, i64 16992
  tail call void %3(ptr noundef nonnull %reqs_lock, ptr noundef nonnull @.str.1, i32 noundef 823) #15
  tail call void @bdrv_wait_serialising_requests_locked(ptr noundef nonnull %self)
  tail call void @qemu_mutex_unlock_impl(ptr noundef nonnull %reqs_lock, ptr noundef nonnull @.str.1, i32 noundef 825) #15
  br label %return

return:                                           ; preds = %entry, %while.end6
  ret void
}